Certificate:
    Data:
        Version: 1 (0x0)
        Serial Number: 1 (0x1)
        Signature Algorithm: sha256WithRSAEncryption
        Issuer: C=US, ST=North Carolina, L=Raleigh, O=Red Hat, CN=www.example.com
        Validity
            Not Before: Jan 21 13:43:10 2022 GMT
            Not After : Jan 19 13:43:10 2032 GMT
        Subject: C=US, ST=North Carolina, O=Red Hat, CN=www.example.com
        Subject Public Key Info:
            Public Key Algorithm: rsaEncryption
                RSA Public-Key: (2048 bit)
                Modulus:
                    00:b4:73:4a:6f:97:08:a3:3d:02:e9:0d:60:7f:75:
                    91:f8:16:78:5b:3f:0d:75:53:a9:8c:5a:44:6d:95:
                    33:6e:4c:ef:7f:ff:c9:06:da:d2:16:36:92:5f:4b:
                    5b:67:cb:75:cc:1c:1d:98:09:9f:6f:5a:8e:23:52:
                    af:71:bf:75:84:1e:f5:31:65:42:7c:05:42:cb:cb:
                    5a:e3:5c:8b:78:4d:76:22:6f:c9:13:01:32:cd:bd:
                    e5:44:5d:01:34:f2:94:08:af:04:97:59:51:e7:29:
                    dc:d7:b4:2d:4f:f6:da:0f:98:54:72:cc:7d:c5:ef:
                    a5:68:a0:08:82:2e:7d:64:b9:aa:0b:06:15:e5:7d:
                    3d:b5:68:97:89:d9:4d:1b:17:36:55:a4:81:30:53:
                    d6:08:c0:46:ac:34:c4:6f:be:f7:31:71:c3:37:eb:
                    2f:18:4c:67:ce:09:06:30:03:07:a9:e8:aa:08:d7:
                    08:78:90:77:df:b6:d6:23:05:1e:89:a7:8e:52:b9:
                    d9:c1:f5:c9:5a:7e:3f:c3:9d:a2:5b:a7:62:07:b1:
                    77:c7:c5:d4:f3:13:0f:e2:22:d1:44:27:49:b9:8d:
                    fc:57:ac:ff:2a:73:69:31:d5:7d:17:53:55:2f:7d:
                    35:f0:94:2f:1c:28:66:47:14:a8:db:06:ef:72:f2:
                    f1:a9
                Exponent: 65537 (0x10001)
    Signature Algorithm: sha256WithRSAEncryption
         00:77:79:00:0f:03:39:9f:05:6e:9f:e6:8b:95:53:31:77:7e:
         d9:21:24:c4:2c:f9:43:bf:a7:de:51:29:8f:4a:75:25:f9:e4:
         c1:d6:81:e4:cb:4d:5e:a6:44:75:56:3c:cf:27:74:2c:f6:c9:
         9f:ca:48:0c:d0:6f:61:5b:b0:c4:8a:0f:11:78:18:28:20:67:
         4b:b6:ae:2b:da:38:e3:9f:f9:c0:fb:67:e7:5f:08:e2:0b:04:
         9b:c1:f8:e3:97:c3:18:fa:7a:08:7d:6a:6f:4c:ac:2c:81:4d:
         46:d0:a0:d2:c4:f8:10:cf:03:71:b6:0b:56:b4:62:38:da:4f:
         98:41:04:cf:65:dd:2d:17:e6:e7:a3:54:00:e6:5e:92:06:38:
         6e:3d:ba:6a:fc:f1:b8:45:e8:86:da:d6:4c:00:e3:f9:40:1a:
         89:65:9a:6c:7f:92:f8:ec:68:7a:4f:2e:b8:be:87:9d:21:9d:
         14:f6:fc:0c:e1:20:ac:c1:7f:a0:f7:76:44:25:99:68:33:db:
         f9:82:37:86:a7:c5:d6:eb:42:d8:0a:a2:47:25:08:69:42:f0:
         61:38:0c:69:e5:5d:8e:a6:c6:b8:4b:48:02:7c:03:24:99:23:
         74:8f:e6:56:de:40:76:d1:f8:81:71:04:f5:b1:ec:21:25:22:
         ef:5e:1e:3f
-----BEGIN CERTIFICATE-----
MIIDKjCCAhICAQEwDQYJKoZIhvcNAQELBQAwZDELMAkGA1UEBhMCVVMxFzAVBgNV
BAgMDk5vcnRoIENhcm9saW5hMRAwDgYDVQQHDAdSYWxlaWdoMRAwDgYDVQQKDAdS
ZWQgSGF0MRgwFgYDVQQDDA93d3cuZXhhbXBsZS5jb20wHhcNMjIwMTIxMTM0MzEw
WhcNMzIwMTE5MTM0MzEwWjBSMQswCQYDVQQGEwJVUzEXMBUGA1UECAwOTm9ydGgg
Q2Fyb2xpbmExEDAOBgNVBAoMB1JlZCBIYXQxGDAWBgNVBAMMD3d3dy5leGFtcGxl
LmNvbTCCASIwDQYJKoZIhvcNAQEBBQADggEPADCCAQoCggEBALRzSm+XCKM9AukN
YH91kfgWeFs/DXVTqYxaRG2VM25M73//yQba0hY2kl9LW2fLdcwcHZgJn29ajiNS
r3G/dYQe9TFlQnwFQsvLWuNci3hNdiJvyRMBMs295URdATTylAivBJdZUecp3Ne0
LU/22g+YVHLMfcXvpWigCIIufWS5qgsGFeV9PbVol4nZTRsXNlWkgTBT1gjARqw0
xG++9zFxwzfrLxhMZ84JBjADB6noqgjXCHiQd9+21iMFHomnjlK52cH1yVp+P8Od
olunYgexd8fF1PMTD+Ii0UQnSbmN/Fes/ypzaTHVfRdTVS99NfCULxwoZkcUqNsG
73Ly8akCAwEAATANBgkqhkiG9w0BAQsFAAOCAQEAAHd5AA8DOZ8Fbp/mi5VTMXd+
2SEkxCz5Q7+n3lEpj0p1JfnkwdaB5MtNXqZEdVY8zyd0LPbJn8pIDNBvYVuwxIoP
EXgYKCBnS7auK9o445/5wPtn518I4gsEm8H445fDGPp6CH1qb0ysLIFNRtCg0sT4
EM8DcbYLVrRiONpPmEEEz2XdLRfm56NUAOZekgY4bj26avzxuEXohtrWTADj+UAa
iWWabH+S+Oxoek8uuL6HnSGdFPb8DOEgrMF/oPd2RCWZaDPb+YI3hqfF1utC2Aqi
RyUIaULwYTgMaeVdjqbGuEtIAnwDJJkjdI/mVt5AdtH4gXEE9bHsISUi714ePw==
-----END CERTIFICATE-----
-----BEGIN PRIVATE KEY-----
MIIEvgIBADANBgkqhkiG9w0BAQEFAASCBKgwggSkAgEAAoIBAQC0c0pvlwijPQLp
DWB/dZH4FnhbPw11U6mMWkRtlTNuTO9//8kG2tIWNpJfS1tny3XMHB2YCZ9vWo4j
Uq9xv3WEHvUxZUJ8BULLy1rjXIt4TXYib8kTATLNveVEXQE08pQIrwSXWVHnKdzX
tC1P9toPmFRyzH3F76VooAiCLn1kuaoLBhXlfT21aJeJ2U0bFzZVpIEwU9YIwEas
NMRvvvcxccM36y8YTGfOCQYwAwep6KoI1wh4kHffttYjBR6Jp45SudnB9clafj/D
naJbp2IHsXfHxdTzEw/iItFEJ0m5jfxXrP8qc2kx1X0XU1UvfTXwlC8cKGZHFKjb
Bu9y8vGpAgMBAAECggEBAJoWIKetFokdnhCXhaERKfXoahmwe7OGHy9kHS5dyy8S
ryhjqKsby22AZ/jLhl/ZUttZ3sNm5CfX8auj/YBp9tU9Ai6NwvnYHDOdkBy5d7bg
nlHFlrONwG4DC3UW3eLyiQnpOUhr0w5LpvLiPhccORQ8BVCJ4ZRVkK8IiHtxa03H
9AMQmbUSPpWE2T02G3GJDUkTIc/GbWt+D1KE+NYSIapXUrJCRc/dq1gyRawGZiyb
f0oNXIGXMtx+FHPLSxdeEcm4mkoiKUbGPpv1kHX8Ipr/8Fp7Few8TS+iQ0XGVNAX
2RdsBHeamNV2muE0FXuE6Dt8kRrpydc6FlvT+tZ3FIkCgYEA7DABafEUcFBTTaKD
/80mf2sIBQdltOk0t/F8VwYOK/hKn5dWcX5pS9PEEQJF6ycmLPr6yNaFQYevq06f
sB70Fkvn3Rvq06wnvemlL2L6Crmt3n5fGxf+jNPSo4cdd1SJyH9ppVoScEyw2GBJ
fvVJwFZRHQAe+60Srnw0I2hrjr8CgYEAw5ZcYVh5EikKWiJBlS5frgXh+izKPcTx
v7X4gFG3Mwtwi+kE1avzJF4wJOrJGIIOht+GyNr/gjDm/FgGZVswJaPobfTXdllk
GwYv6KhrNXm3dpUYFCtYBomUwYOTLJDbEBpLxLtQEmlb3Zh55DV8yk/eBpfdhAgG
i5gKRh/NAZcCgYEA26rWVcsjwEXlBGqnLA2Ixa8tOUgk/vp6zq2pgGKgYaK+/OlL
O6lfk2e0jkE3+DpkFiejgZGLRGRHLSOl/676Q5Z7YrkpUY9nMwmQWZ9LgRgqrqmI
GPHbDO2hlff/ntGgiDqAbop0Zb/eJpB/KrZFzr45GKjZKChTHLdl4pymlI8CgYAQ
rT1rP3PzTHSJguo8ohueZvoBrtf/tE84nXd22YDZZVxPUasL3QF6VF2eiDZlVJGQ
hnajoaivnSPU2FyTP9c3HmavGXVVrgGPHFPxborVoG84OTY4Ygm7ZPe+GE3wOtmy
4cscFyyYpUsj9eBOyRC+31h7D2/f1h9Yv7oAiK2eOQKBgGk6hTJQxlvenSIJz4qd
VusDN4mk7OTIGuEU4sdglXd/uOwpYQL3h9EiDuGR6OfT5oqQ5OclOlcUzQDutsdX
fYnOrYhhbWqAk/lPxIIgp2t9Ngvss/q9rHMJc+kBy4FH7ChcvO/egsmFga52ICgm
AiC9TOjvw+WYfRmINl+RgHlZ
-----END PRIVATE KEY-----
